target datalayout = "e-m:e-p270:32:32-p271:32:32-p272:64:64-i64:64-i128:128-f80:128-n8:16:32:64-S128"
target triple = "x86_64-pc-linux-gnu"

%struct._zend_executor_globals = type { %struct._zval_struct, %struct._zval_struct, [32 x ptr], ptr, ptr, %struct._zend_array, %struct._zend_array, ptr, i32, i32, ptr, ptr, ptr, ptr, ptr, ptr, i64, ptr, ptr, i32, i32, i64, i32, i32, i32, i8, i8, %struct.zend_atomic_bool_s, %struct.zend_atomic_bool_s, ptr, i64, ptr, ptr, %struct._zend_array, %struct._zend_array, i32, i8, %struct._zval_struct, %struct._zval_struct, %struct._zend_stack, %struct._zend_stack, %struct._zend_stack, ptr, i32, i32, i64, ptr, ptr, ptr, %struct._zend_objects_store, ptr, ptr, ptr, [3 x %struct._zend_op], ptr, i8, i8, i64, i32, i32, ptr, [16 x %struct._HashTableIterator], ptr, %union._zend_function, %struct._zend_op, %struct._zend_array, i64, %struct.zend_get_gc_buffer, ptr, ptr, ptr, i64, i8, i32, ptr, ptr, i64, %struct._zend_call_stack, i64, i64, [6 x ptr] }
%struct.zend_atomic_bool_s = type { i8 }
%struct._zval_struct = type { %union._zend_value, %union.anon.9, %union.anon.12 }
%union._zend_value = type { i64 }
%union.anon.9 = type { i32 }
%union.anon.12 = type { i32 }
%struct._zend_stack = type { i32, i32, i32, ptr }
%struct._zend_objects_store = type { ptr, i32, i32, i32 }
%struct._HashTableIterator = type { ptr, i32, i32 }
%union._zend_function = type { %struct._zend_op_array }
%struct._zend_op_array = type { i8, [3 x i8], i32, ptr, ptr, ptr, i32, i32, ptr, ptr, ptr, ptr, i32, i32, i32, i32, ptr, ptr, ptr, ptr, ptr, i32, i32, ptr, ptr, ptr, i32, i32, i32, i32, ptr, ptr, [6 x ptr] }
%struct._zend_op = type { ptr, %union._znode_op, %union._znode_op, %union._znode_op, i32, i32, i8, i8, i8, i8 }
%union._znode_op = type { i32 }
%struct._zend_array = type { %struct._zend_refcounted_h, %union.anon.1, i32, %union.anon.2, i32, i32, i32, i32, i64, ptr }
%struct._zend_refcounted_h = type { i32, %union.anon.0 }
%union.anon.0 = type { i32 }
%union.anon.1 = type { i32 }
%union.anon.2 = type { ptr }
%struct.zend_get_gc_buffer = type { ptr, ptr, ptr }
%struct._zend_call_stack = type { ptr, i64 }
%struct._zend_fcall_info_cache = type { ptr, ptr, ptr, ptr, ptr }
%struct.xml_parser = type { ptr, ptr, %struct._zval_struct, ptr, %struct._zend_fcall_info_cache, %struct._zend_fcall_info_cache, %struct._zend_fcall_info_cache, %struct._zend_fcall_info_cache, %struct._zend_fcall_info_cache, %struct._zend_fcall_info_cache, %struct._zend_fcall_info_cache, %struct._zend_fcall_info_cache, %struct._zend_fcall_info_cache, %struct._zend_fcall_info_cache, %struct._zval_struct, %struct._zval_struct, i32, i32, i32, ptr, ptr, i8, i8, i8, i8, i8, ptr, %struct._zend_object }
%struct._zend_object = type { %struct._zend_refcounted_h, i32, ptr, ptr, ptr, [1 x %struct._zval_struct] }
%struct._zend_execute_data = type { ptr, ptr, ptr, ptr, %struct._zval_struct, ptr, ptr, ptr, ptr }
%struct._XML_Parser = type { i32, ptr, ptr, ptr, ptr, ptr, ptr, ptr, ptr, ptr, ptr, ptr, ptr, ptr, ptr }
%struct._xmlParserCtxt = type { ptr, ptr, ptr, i32, i32, ptr, ptr, i32, i32, ptr, i32, i32, ptr, ptr, i32, i32, ptr, i32, %struct._xmlParserNodeInfoSeq, i32, i32, i32, i32, i32, i32, %struct._xmlValidCtxt, i32, i32, ptr, ptr, i32, i32, ptr, i64, i64, i32, i32, i32, ptr, ptr, ptr, ptr, i32, i32, ptr, i32, ptr, i32, i32, i32, i32, ptr, i32, i32, ptr, i32, i32, ptr, ptr, i32, i32, ptr, ptr, ptr, i32, i32, i32, ptr, ptr, ptr, ptr, ptr, i32, i32, i32, i32, ptr, i32, ptr, %struct._xmlError, i32, i64, i64, ptr, i32, i32, ptr, i32, i64 }
%struct._xmlParserNodeInfoSeq = type { i64, i64, ptr }
%struct._xmlValidCtxt = type { ptr, ptr, ptr, ptr, i32, i32, ptr, i32, ptr, i32, ptr, i32, i32, ptr, ptr, ptr }
%struct._xmlError = type { i32, i32, ptr, i32, ptr, i32, ptr, ptr, ptr, i32, i32, ptr, ptr }

@xml_parser_ce = internal global ptr null, align 8
@executor_globals = external global %struct._zend_executor_globals, align 8
@.str.37 = private unnamed_addr constant [5 x i8] c"Os|b\00", align 1
@.str.38 = private unnamed_addr constant [38 x i8] c"Parser must not be called recursively\00", align 1

; Function Attrs: nounwind uwtable
define internal i32 @xml_parse_helper(ptr noundef %0, ptr noundef %1, i64 noundef %2, i1 noundef zeroext %3) #0 {
  %5 = alloca ptr, align 8
  %6 = alloca ptr, align 8
  %7 = alloca i64, align 8
  %8 = alloca i8, align 1
  %9 = alloca i32, align 4
  store ptr %0, ptr %5, align 8
  store ptr %1, ptr %6, align 8
  store i64 %2, ptr %7, align 8
  %10 = zext i1 %3 to i8
  store i8 %10, ptr %8, align 1
  %11 = load ptr, ptr %5, align 8
  %12 = getelementptr inbounds %struct.xml_parser, ptr %11, i32 0, i32 23
  %13 = load i8, ptr %12, align 2
  %14 = trunc i8 %13 to i1
  %15 = xor i1 %14, true
  call void @llvm.assume(i1 %15)
  %16 = load ptr, ptr %5, align 8
  %17 = getelementptr inbounds %struct.xml_parser, ptr %16, i32 0, i32 24
  %18 = load i8, ptr %17, align 1
  %19 = trunc i8 %18 to i1
  br i1 %19, label %20, label %37

20:                                               ; preds = %4
  %21 = load ptr, ptr %5, align 8
  %22 = getelementptr inbounds %struct.xml_parser, ptr %21, i32 0, i32 0
  %23 = load ptr, ptr %22, align 8
  %24 = getelementptr inbounds %struct._XML_Parser, ptr %23, i32 0, i32 3
  %25 = load ptr, ptr %24, align 8
  %26 = getelementptr inbounds %struct._xmlParserCtxt, ptr %25, i32 0, i32 73
  %27 = load i32, ptr %26, align 4
  %28 = or i32 %27, 524288
  store i32 %28, ptr %26, align 4
  %29 = load ptr, ptr %5, align 8
  %30 = getelementptr inbounds %struct.xml_parser, ptr %29, i32 0, i32 0
  %31 = load ptr, ptr %30, align 8
  %32 = getelementptr inbounds %struct._XML_Parser, ptr %31, i32 0, i32 3
  %33 = load ptr, ptr %32, align 8
  %34 = getelementptr inbounds %struct._xmlParserCtxt, ptr %33, i32 0, i32 57
  %35 = load ptr, ptr %34, align 8
  %36 = call i64 @xmlDictSetLimit(ptr noundef %35, i64 noundef 0)
  br label %54

37:                                               ; preds = %4
  %38 = load ptr, ptr %5, align 8
  %39 = getelementptr inbounds %struct.xml_parser, ptr %38, i32 0, i32 0
  %40 = load ptr, ptr %39, align 8
  %41 = getelementptr inbounds %struct._XML_Parser, ptr %40, i32 0, i32 3
  %42 = load ptr, ptr %41, align 8
  %43 = getelementptr inbounds %struct._xmlParserCtxt, ptr %42, i32 0, i32 73
  %44 = load i32, ptr %43, align 4
  %45 = and i32 %44, -524289
  store i32 %45, ptr %43, align 4
  %46 = load ptr, ptr %5, align 8
  %47 = getelementptr inbounds %struct.xml_parser, ptr %46, i32 0, i32 0
  %48 = load ptr, ptr %47, align 8
  %49 = getelementptr inbounds %struct._XML_Parser, ptr %48, i32 0, i32 3
  %50 = load ptr, ptr %49, align 8
  %51 = getelementptr inbounds %struct._xmlParserCtxt, ptr %50, i32 0, i32 57
  %52 = load ptr, ptr %51, align 8
  %53 = call i64 @xmlDictSetLimit(ptr noundef %52, i64 noundef 10000000)
  br label %54

54:                                               ; preds = %37, %20
  %55 = load ptr, ptr %5, align 8
  %56 = getelementptr inbounds %struct.xml_parser, ptr %55, i32 0, i32 23
  store i8 1, ptr %56, align 2
  %57 = load ptr, ptr %5, align 8
  %58 = getelementptr inbounds %struct.xml_parser, ptr %57, i32 0, i32 0
  %59 = load ptr, ptr %58, align 8
  %60 = load ptr, ptr %6, align 8
  %61 = load i64, ptr %7, align 8
  %62 = trunc i64 %61 to i32
  %63 = load i8, ptr %8, align 1
  %64 = trunc i8 %63 to i1
  %65 = zext i1 %64 to i32
  %66 = call i32 @php_XML_Parse(ptr noundef %59, ptr noundef %60, i32 noundef %62, i32 noundef %65)
  store i32 %66, ptr %9, align 4
  %67 = load ptr, ptr %5, align 8
  %68 = getelementptr inbounds %struct.xml_parser, ptr %67, i32 0, i32 23
  store i8 0, ptr %68, align 2
  %69 = load i32, ptr %9, align 4
  ret i32 %69
}

; Function Attrs: nounwind uwtable
define internal ptr @xml_parser_from_obj(ptr noundef %0) #0 {
  %2 = alloca ptr, align 8
  store ptr %0, ptr %2, align 8
  %3 = load ptr, ptr %2, align 8
  %4 = getelementptr inbounds i8, ptr %3, i64 -520
  ret ptr %4
}

; Function Attrs: nounwind uwtable
define hidden void @zif_xml_parse(ptr noundef %0, ptr noundef %1) #0 {
  %3 = alloca ptr, align 8
  %4 = alloca ptr, align 8
  %5 = alloca ptr, align 8
  %6 = alloca ptr, align 8
  %7 = alloca ptr, align 8
  %8 = alloca i64, align 8
  %9 = alloca i8, align 1
  %10 = alloca ptr, align 8
  store ptr %0, ptr %3, align 8
  store ptr %1, ptr %4, align 8
  store i8 0, ptr %9, align 1
  %11 = load ptr, ptr %3, align 8
  %12 = getelementptr inbounds %struct._zend_execute_data, ptr %11, i32 0, i32 4
  %13 = getelementptr inbounds %struct._zval_struct, ptr %12, i32 0, i32 2
  %14 = load i32, ptr %13, align 4
  %15 = load ptr, ptr @xml_parser_ce, align 8
  %16 = call i32 (i32, ptr, ...) @zend_parse_parameters(i32 noundef %14, ptr noundef @.str.37, ptr noundef %6, ptr noundef %15, ptr noundef %7, ptr noundef %8, ptr noundef %9)
  %17 = icmp eq i32 %16, -1
  br i1 %17, label %18, label %23

18:                                               ; preds = %2
  br label %19

19:                                               ; preds = %18
  %20 = load ptr, ptr getelementptr inbounds (%struct._zend_executor_globals, ptr @executor_globals, i32 0, i32 50), align 8
  %21 = icmp ne ptr %20, null
  call void @llvm.assume(i1 %21)
  br label %53

22:                                               ; No predecessors!
  br label %23

23:                                               ; preds = %22, %2
  %24 = load ptr, ptr %6, align 8
  %25 = getelementptr inbounds %struct._zval_struct, ptr %24, i32 0, i32 0
  %26 = load ptr, ptr %25, align 8
  %27 = call ptr @xml_parser_from_obj(ptr noundef %26)
  store ptr %27, ptr %5, align 8
  %28 = load ptr, ptr %5, align 8
  %29 = getelementptr inbounds %struct.xml_parser, ptr %28, i32 0, i32 23
  %30 = load i8, ptr %29, align 2
  %31 = trunc i8 %30 to i1
  br i1 %31, label %32, label %37

32:                                               ; preds = %23
  call void (ptr, ptr, ...) @zend_throw_error(ptr noundef null, ptr noundef @.str.38)
  br label %33

33:                                               ; preds = %32
  %34 = load ptr, ptr getelementptr inbounds (%struct._zend_executor_globals, ptr @executor_globals, i32 0, i32 50), align 8
  %35 = icmp ne ptr %34, null
  call void @llvm.assume(i1 %35)
  br label %53

36:                                               ; No predecessors!
  br label %37

37:                                               ; preds = %36, %23
  br label %38

38:                                               ; preds = %37
  br label %39

39:                                               ; preds = %38
  %40 = load ptr, ptr %4, align 8
  store ptr %40, ptr %10, align 8
  %41 = load ptr, ptr %5, align 8
  %42 = load ptr, ptr %7, align 8
  %43 = load i64, ptr %8, align 8
  %44 = load i8, ptr %9, align 1
  %45 = trunc i8 %44 to i1
  %46 = call i32 @xml_parse_helper(ptr noundef %41, ptr noundef %42, i64 noundef %43, i1 noundef zeroext %45)
  %47 = sext i32 %46 to i64
  %48 = load ptr, ptr %10, align 8
  %49 = getelementptr inbounds %struct._zval_struct, ptr %48, i32 0, i32 0
  store i64 %47, ptr %49, align 8
  %50 = load ptr, ptr %10, align 8
  %51 = getelementptr inbounds %struct._zval_struct, ptr %50, i32 0, i32 1
  store i32 4, ptr %51, align 8
  br label %52

52:                                               ; preds = %39
  br label %53

53:                                               ; preds = %52, %33, %19
  ret void
}