; Function Attrs: nounwind uwtable
define hidden void @zif_xml_parse(ptr nocapture noundef readonly %0, ptr nocapture noundef writeonly %1) #0 {
  %3 = alloca ptr, align 8
  %4 = alloca ptr, align 8
  %5 = alloca i64, align 8
  %6 = alloca i8, align 1
  store i8 0, ptr %6, align 1
  %7 = getelementptr inbounds i8, ptr %0, i64 44
  %8 = load i32, ptr %7, align 4
  %9 = load ptr, ptr @xml_parser_ce, align 8
  %10 = call i32 (i32, ptr, ...) @zend_parse_parameters(i32 noundef %8, ptr noundef nonnull @.str.37, ptr noundef nonnull %3, ptr noundef %9, ptr noundef nonnull %4, ptr noundef nonnull %5, ptr noundef nonnull %6) #16
  %11 = icmp eq i32 %10, -1
  br i1 %11, label %12, label %15

12:                                               ; preds = %2
  %13 = load ptr, ptr getelementptr inbounds (%struct._zend_executor_globals, ptr @executor_globals, i64 0, i32 50), align 8
  %14 = icmp ne ptr %13, null
  call void @llvm.assume(i1 %14)
  br label %52

15:                                               ; preds = %2
  %16 = load ptr, ptr %3, align 8
  %17 = load ptr, ptr %16, align 8
  %18 = getelementptr inbounds i8, ptr %17, i64 -14
  %19 = load i8, ptr %18, align 2
  %20 = and i8 %19, 1
  %.not = icmp eq i8 %20, 0
  br i1 %.not, label %24, label %21

21:                                               ; preds = %15
  call void (ptr, ptr, ...) @zend_throw_error(ptr noundef null, ptr noundef nonnull @.str.38) #16
  %22 = load ptr, ptr getelementptr inbounds (%struct._zend_executor_globals, ptr @executor_globals, i64 0, i32 50), align 8
  %23 = icmp ne ptr %22, null
  call void @llvm.assume(i1 %23)
  br label %52

24:                                               ; preds = %15
  %25 = getelementptr inbounds i8, ptr %17, i64 -520
  %26 = load ptr, ptr %4, align 8
  %27 = load i64, ptr %5, align 8
  %28 = load i8, ptr %6, align 1
  %29 = and i8 %28, 1
  %30 = getelementptr inbounds i8, ptr %17, i64 -13
  %31 = load i8, ptr %30, align 1
  %32 = and i8 %31, 1
  %.not12.i = icmp eq i8 %32, 0
  %33 = load ptr, ptr %25, align 8
  %34 = getelementptr inbounds i8, ptr %33, i64 24
  %35 = load ptr, ptr %34, align 8
  %36 = getelementptr inbounds i8, ptr %35, i64 564
  %37 = load i32, ptr %36, align 4
  %38 = and i32 %37, -524289
  %39 = zext nneg i8 %32 to i32
  %masksel.i = shl nuw nsw i32 %39, 19
  %.sink.i = or disjoint i32 %38, %masksel.i
  %.sink13.i = select i1 %.not12.i, i64 10000000, i64 0
  store i32 %.sink.i, ptr %36, align 4
  %40 = load ptr, ptr %25, align 8
  %41 = getelementptr inbounds i8, ptr %40, i64 24
  %42 = load ptr, ptr %41, align 8
  %43 = getelementptr inbounds i8, ptr %42, i64 456
  %44 = load ptr, ptr %43, align 8
  %45 = call i64 @xmlDictSetLimit(ptr noundef %44, i64 noundef %.sink13.i) #16
  store i8 1, ptr %18, align 2
  %46 = load ptr, ptr %25, align 8
  %47 = trunc i64 %27 to i32
  %48 = zext nneg i8 %29 to i32
  %49 = call i32 @php_XML_Parse(ptr noundef %46, ptr noundef %26, i32 noundef %47, i32 noundef %48) #16
  store i8 0, ptr %18, align 2
  %50 = sext i32 %49 to i64
  store i64 %50, ptr %1, align 8
  %51 = getelementptr inbounds i8, ptr %1, i64 8
  store i32 4, ptr %51, align 8
  br label %52

52:                                               ; preds = %24, %21, %12
  ret void
}